target datalayout = "e-m:e-p270:32:32-p271:32:32-p272:64:64-i64:64-i128:128-f80:128-n8:16:32:64-S128"
target triple = "x86_64-pc-linux-gnu"

%"class.arrow::compute::FunctionOptions" = type { ptr, ptr }

; Function Attrs: mustprogress nounwind uwtable
define linkonce_odr noundef ptr @_ZNK5arrow7compute15FunctionOptions12options_typeEv(ptr noundef nonnull align 8 dereferenceable(16) %0) #0 comdat align 2 {
  %2 = alloca ptr, align 8
  store ptr %0, ptr %2, align 8, !tbaa !55
  %3 = load ptr, ptr %2, align 8
  %4 = getelementptr inbounds nuw %"class.arrow::compute::FunctionOptions", ptr %3, i32 0, i32 1
  %5 = load ptr, ptr %4, align 8, !tbaa !87
  ret ptr %5
}

; Function Attrs: mustprogress uwtable
define noundef zeroext i1 @_ZNK5arrow7compute15FunctionOptions6EqualsERKS1_(ptr noundef nonnull align 8 dereferenceable(16) %0, ptr noundef nonnull align 8 dereferenceable(16) %1) #1 align 2 {
  %3 = alloca i1, align 1
  %4 = alloca ptr, align 8
  %5 = alloca ptr, align 8
  store ptr %0, ptr %4, align 8, !tbaa !55
  store ptr %1, ptr %5, align 8, !tbaa !55
  %6 = load ptr, ptr %4, align 8
  %7 = load ptr, ptr %5, align 8, !tbaa !55
  %8 = icmp eq ptr %6, %7
  br i1 %8, label %9, label %10

9:                                                ; preds = %2
  store i1 true, ptr %3, align 1
  br label %23

10:                                               ; preds = %2
  %11 = call noundef ptr @_ZNK5arrow7compute15FunctionOptions12options_typeEv(ptr noundef nonnull align 8 dereferenceable(16) %6)
  %12 = load ptr, ptr %5, align 8, !tbaa !55
  %13 = call noundef ptr @_ZNK5arrow7compute15FunctionOptions12options_typeEv(ptr noundef nonnull align 8 dereferenceable(16) %12)
  %14 = icmp ne ptr %11, %13
  br i1 %14, label %15, label %16

15:                                               ; preds = %10
  store i1 false, ptr %3, align 1
  br label %23

16:                                               ; preds = %10
  %17 = call noundef ptr @_ZNK5arrow7compute15FunctionOptions12options_typeEv(ptr noundef nonnull align 8 dereferenceable(16) %6)
  %18 = load ptr, ptr %5, align 8, !tbaa !55
  %19 = load ptr, ptr %17, align 8, !tbaa !57
  %20 = getelementptr inbounds ptr, ptr %19, i64 4
  %21 = load ptr, ptr %20, align 8
  %22 = call noundef zeroext i1 %21(ptr noundef nonnull align 8 dereferenceable(8) %17, ptr noundef nonnull align 8 dereferenceable(16) %6, ptr noundef nonnull align 8 dereferenceable(16) %18)
  store i1 %22, ptr %3, align 1
  br label %23

23:                                               ; preds = %16, %15, %9
  %24 = load i1, ptr %3, align 1
  ret i1 %24
}