; Function Attrs: mustprogress uwtable
define noundef zeroext i1 @_ZNK5arrow7compute15FunctionOptions6EqualsERKS1_(ptr noundef nonnull align 8 dereferenceable(16) %0, ptr noundef nonnull align 8 dereferenceable(16) %1) local_unnamed_addr #1 align 2 {
  %3 = icmp eq ptr %0, %1
  br i1 %3, label %14, label %4

4:                                                ; preds = %2
  %5 = getelementptr inbounds nuw i8, ptr %0, i64 8
  %6 = load ptr, ptr %5, align 8, !tbaa !68
  %7 = getelementptr inbounds nuw i8, ptr %1, i64 8
  %8 = load ptr, ptr %7, align 8, !tbaa !68
  %.not = icmp eq ptr %6, %8
  br i1 %.not, label %9, label %14

9:                                                ; preds = %4
  %10 = load ptr, ptr %6, align 8, !tbaa !32
  %11 = getelementptr inbounds nuw i8, ptr %10, i64 32
  %12 = load ptr, ptr %11, align 8
  %13 = tail call noundef zeroext i1 %12(ptr noundef nonnull align 8 dereferenceable(8) %6, ptr noundef nonnull align 8 dereferenceable(16) %0, ptr noundef nonnull align 8 dereferenceable(16) %1)
  br label %14

14:                                               ; preds = %4, %2, %9
  %.0 = phi i1 [ %13, %9 ], [ true, %2 ], [ false, %4 ]
  ret i1 %.0
}